#include <math.h>
#include <stdio.h>
#include <stdlib.h>
#include <string.h>
#include <iostream>
using namespace std;

int main() 
{ 
int nian,yue,ri,leap,sum; 
scanf("%d%d%d",&nian,&yue,&ri); 
switch(yue) 
{ 
case 1:sum=0; 
break; 
case 2:sum=31; 
break; 
case 3:sum=59; 
break; 
case 4:sum=90; 
break; 
case 5:sum=120; 
break; 
case 6:sum=151; 
break; 
case 7:sum=181; 
break; 
case 8:sum=212; 
break; 
case 9:sum=243; 
break; 
case 10:sum=273; 
break; 
case 11:sum=304; 
break; 
case 12:sum=334; 
break; 

} 
sum=sum+ri; 
if((nian%400==0) ||(nian%4==0 && nian%100!=0 ))
leap=1; 
else 
leap=0; 
if(leap==1 && nian>3&&yue>2) 
sum++; 
cout <<sum<<endl;

return 0;
}

