; ModuleID = '11/1121.cpp'
source_filename = "11/1121.cpp"
target datalayout = "e-m:e-p270:32:32-p271:32:32-p272:64:64-i64:64-f80:128-n8:16:32:64-S128"
target triple = "x86_64-pc-linux-gnu"

%"class.std::ios_base::Init" = type { i8 }
%"class.std::basic_ostream" = type { i32 (...)**, %"class.std::basic_ios" }
%"class.std::basic_ios" = type { %"class.std::ios_base", %"class.std::basic_ostream"*, i8, i8, %"class.std::basic_streambuf"*, %"class.std::ctype"*, %"class.std::num_put"*, %"class.std::num_get"* }
%"class.std::ios_base" = type { i32 (...)**, i64, i64, i32, i32, i32, %"struct.std::ios_base::_Callback_list"*, %"struct.std::ios_base::_Words", [8 x %"struct.std::ios_base::_Words"], i32, %"struct.std::ios_base::_Words"*, %"class.std::locale" }
%"struct.std::ios_base::_Callback_list" = type { %"struct.std::ios_base::_Callback_list"*, void (i32, %"class.std::ios_base"*, i32)*, i32, i32 }
%"struct.std::ios_base::_Words" = type { i8*, i64 }
%"class.std::locale" = type { %"class.std::locale::_Impl"* }
%"class.std::locale::_Impl" = type { i32, %"class.std::locale::facet"**, i64, %"class.std::locale::facet"**, i8** }
%"class.std::locale::facet" = type <{ i32 (...)**, i32, [4 x i8] }>
%"class.std::basic_streambuf" = type { i32 (...)**, i8*, i8*, i8*, i8*, i8*, i8*, %"class.std::locale" }
%"class.std::ctype" = type <{ %"class.std::locale::facet.base", [4 x i8], %struct.__locale_struct*, i8, [7 x i8], i32*, i32*, i16*, i8, [256 x i8], [256 x i8], i8, [6 x i8] }>
%"class.std::locale::facet.base" = type <{ i32 (...)**, i32 }>
%struct.__locale_struct = type { [13 x %struct.__locale_data*], i16*, i32*, i32*, [13 x i8*] }
%struct.__locale_data = type opaque
%"class.std::num_put" = type { %"class.std::locale::facet.base", [4 x i8] }
%"class.std::num_get" = type { %"class.std::locale::facet.base", [4 x i8] }

@_ZStL8__ioinit = internal global %"class.std::ios_base::Init" zeroinitializer, align 1
@__dso_handle = external hidden global i8
@.str = private unnamed_addr constant [7 x i8] c"%d%d%d\00", align 1
@_ZSt4cout = external dso_local global %"class.std::basic_ostream", align 8
@llvm.global_ctors = appending global [1 x { i32, void ()*, i8* }] [{ i32, void ()*, i8* } { i32 65535, void ()* @_GLOBAL__sub_I_1121.cpp, i8* null }]

; Function Attrs: noinline uwtable
define internal void @__cxx_global_var_init() #0 section ".text.startup" {
  call void @_ZNSt8ios_base4InitC1Ev(%"class.std::ios_base::Init"* @_ZStL8__ioinit)
  %1 = call i32 @__cxa_atexit(void (i8*)* bitcast (void (%"class.std::ios_base::Init"*)* @_ZNSt8ios_base4InitD1Ev to void (i8*)*), i8* getelementptr inbounds (%"class.std::ios_base::Init", %"class.std::ios_base::Init"* @_ZStL8__ioinit, i32 0, i32 0), i8* @__dso_handle) #3
  ret void
}

declare dso_local void @_ZNSt8ios_base4InitC1Ev(%"class.std::ios_base::Init"*) unnamed_addr #1

; Function Attrs: nounwind
declare dso_local void @_ZNSt8ios_base4InitD1Ev(%"class.std::ios_base::Init"*) unnamed_addr #2

; Function Attrs: nounwind
declare dso_local i32 @__cxa_atexit(void (i8*)*, i8*, i8*) #3

; Function Attrs: noinline norecurse uwtable
define dso_local i32 @main() #4 {
  %1 = alloca i32, align 4
  %2 = alloca i32, align 4
  %3 = alloca i32, align 4
  %4 = alloca i32, align 4
  %5 = alloca i32, align 4
  %6 = alloca i32, align 4
  store i32 0, i32* %1, align 4
  %7 = call i32 (i8*, ...) @__isoc99_scanf(i8* getelementptr inbounds ([7 x i8], [7 x i8]* @.str, i64 0, i64 0), i32* %2, i32* %3, i32* %4)
  %8 = load i32, i32* %3, align 4
  switch i32 %8, label %21 [
    i32 1, label %9
    i32 2, label %10
    i32 3, label %11
    i32 4, label %12
    i32 5, label %13
    i32 6, label %14
    i32 7, label %15
    i32 8, label %16
    i32 9, label %17
    i32 10, label %18
    i32 11, label %19
    i32 12, label %20
  ]

9:                                                ; preds = %0
  store i32 0, i32* %6, align 4
  br label %21

10:                                               ; preds = %0
  store i32 31, i32* %6, align 4
  br label %21

11:                                               ; preds = %0
  store i32 59, i32* %6, align 4
  br label %21

12:                                               ; preds = %0
  store i32 90, i32* %6, align 4
  br label %21

13:                                               ; preds = %0
  store i32 120, i32* %6, align 4
  br label %21

14:                                               ; preds = %0
  store i32 151, i32* %6, align 4
  br label %21

15:                                               ; preds = %0
  store i32 181, i32* %6, align 4
  br label %21

16:                                               ; preds = %0
  store i32 212, i32* %6, align 4
  br label %21

17:                                               ; preds = %0
  store i32 243, i32* %6, align 4
  br label %21

18:                                               ; preds = %0
  store i32 273, i32* %6, align 4
  br label %21

19:                                               ; preds = %0
  store i32 304, i32* %6, align 4
  br label %21

20:                                               ; preds = %0
  store i32 334, i32* %6, align 4
  br label %21

21:                                               ; preds = %0, %20, %19, %18, %17, %16, %15, %14, %13, %12, %11, %10, %9
  %22 = load i32, i32* %6, align 4
  %23 = load i32, i32* %4, align 4
  %24 = add nsw i32 %22, %23
  store i32 %24, i32* %6, align 4
  %25 = load i32, i32* %2, align 4
  %26 = srem i32 %25, 400
  %27 = icmp eq i32 %26, 0
  br i1 %27, label %36, label %28

28:                                               ; preds = %21
  %29 = load i32, i32* %2, align 4
  %30 = srem i32 %29, 4
  %31 = icmp eq i32 %30, 0
  br i1 %31, label %32, label %37

32:                                               ; preds = %28
  %33 = load i32, i32* %2, align 4
  %34 = srem i32 %33, 100
  %35 = icmp ne i32 %34, 0
  br i1 %35, label %36, label %37

36:                                               ; preds = %32, %21
  store i32 1, i32* %5, align 4
  br label %38

37:                                               ; preds = %32, %28
  store i32 0, i32* %5, align 4
  br label %38

38:                                               ; preds = %37, %36
  %39 = load i32, i32* %5, align 4
  %40 = icmp eq i32 %39, 1
  br i1 %40, label %41, label %50

41:                                               ; preds = %38
  %42 = load i32, i32* %2, align 4
  %43 = icmp sgt i32 %42, 3
  br i1 %43, label %44, label %50

44:                                               ; preds = %41
  %45 = load i32, i32* %3, align 4
  %46 = icmp sgt i32 %45, 2
  br i1 %46, label %47, label %50

47:                                               ; preds = %44
  %48 = load i32, i32* %6, align 4
  %49 = add nsw i32 %48, 1
  store i32 %49, i32* %6, align 4
  br label %50

50:                                               ; preds = %47, %44, %41, %38
  %51 = load i32, i32* %6, align 4
  %52 = call dereferenceable(272) %"class.std::basic_ostream"* @_ZNSolsEi(%"class.std::basic_ostream"* @_ZSt4cout, i32 %51)
  %53 = call dereferenceable(272) %"class.std::basic_ostream"* @_ZNSolsEPFRSoS_E(%"class.std::basic_ostream"* %52, %"class.std::basic_ostream"* (%"class.std::basic_ostream"*)* @_ZSt4endlIcSt11char_traitsIcEERSt13basic_ostreamIT_T0_ES6_)
  ret i32 0
}

declare dso_local i32 @__isoc99_scanf(i8*, ...) #1

declare dso_local dereferenceable(272) %"class.std::basic_ostream"* @_ZNSolsEi(%"class.std::basic_ostream"*, i32) #1

declare dso_local dereferenceable(272) %"class.std::basic_ostream"* @_ZNSolsEPFRSoS_E(%"class.std::basic_ostream"*, %"class.std::basic_ostream"* (%"class.std::basic_ostream"*)*) #1

declare dso_local dereferenceable(272) %"class.std::basic_ostream"* @_ZSt4endlIcSt11char_traitsIcEERSt13basic_ostreamIT_T0_ES6_(%"class.std::basic_ostream"* dereferenceable(272)) #1

; Function Attrs: noinline uwtable
define internal void @_GLOBAL__sub_I_1121.cpp() #0 section ".text.startup" {
  call void @__cxx_global_var_init()
  ret void
}


!llvm.module.flags = !{!0}
!llvm.ident = !{!1}

!0 = !{i32 1, !"wchar_size", i32 4}
!1 = !{!"clang version 10.0.0-4ubuntu1 "}
